; Function Attrs: mustprogress nofree norecurse nosync nounwind willreturn memory(read, inaccessiblemem: none) uwtable
define noundef i32 @_ZNK6icu_7517UCharsTrieBuilder21getLimitOfLinearMatchEiii(ptr nocapture noundef nonnull readonly align 8 dereferenceable(112) %this, i32 noundef %first, i32 noundef %last, i32 noundef %unitIndex) unnamed_addr #7 align 2 {
entry:
  %elements = getelementptr inbounds i8, ptr %this, i64 80
  %0 = load ptr, ptr %elements, align 8
  %idxprom = sext i32 %first to i64
  %arrayidx = getelementptr inbounds %"class.icu_75::UCharsTrieElement", ptr %0, i64 %idxprom
  %idxprom3 = sext i32 %last to i64
  %arrayidx4 = getelementptr inbounds %"class.icu_75::UCharsTrieElement", ptr %0, i64 %idxprom3
  %1 = load i32, ptr %arrayidx, align 4
  %fUnion.i.i.i.i.i = getelementptr inbounds i8, ptr %this, i64 24
  %2 = load i16, ptr %fUnion.i.i.i.i.i, align 8
  %cmp.i.i.i.i.i = icmp slt i16 %2, 0
  %3 = ashr i16 %2, 5
  %shr.i.i.i.i.i = sext i16 %3 to i32
  %fLength.i.i.i.i = getelementptr inbounds i8, ptr %this, i64 28
  %4 = load i32, ptr %fLength.i.i.i.i, align 4
  %cond.i.i.i.i = select i1 %cmp.i.i.i.i.i, i32 %4, i32 %shr.i.i.i.i.i
  %cmp.i.i.i = icmp ugt i32 %cond.i.i.i.i, %1
  br i1 %cmp.i.i.i, label %if.then.i.i.i, label %entry._ZNK6icu_7517UCharsTrieElement15getStringLengthERKNS_13UnicodeStringE.exit_crit_edge

entry._ZNK6icu_7517UCharsTrieElement15getStringLengthERKNS_13UnicodeStringE.exit_crit_edge: ; preds = %entry
  %fArray.i.i.i.i15.phi.trans.insert = getelementptr inbounds i8, ptr %this, i64 40
  %.pre = load ptr, ptr %fArray.i.i.i.i15.phi.trans.insert, align 8
  %.pre38 = and i16 %2, 2
  br label %_ZNK6icu_7517UCharsTrieElement15getStringLengthERKNS_13UnicodeStringE.exit

if.then.i.i.i:                                    ; preds = %entry
  %5 = and i16 %2, 2
  %tobool.not.i.i.i.i = icmp eq i16 %5, 0
  %fBuffer.i.i.i.i = getelementptr inbounds i8, ptr %this, i64 26
  %fArray.i.i.i.i = getelementptr inbounds i8, ptr %this, i64 40
  %6 = load ptr, ptr %fArray.i.i.i.i, align 8
  %cond.i2.i.i.i = select i1 %tobool.not.i.i.i.i, ptr %6, ptr %fBuffer.i.i.i.i
  %idxprom.i.i.i = sext i32 %1 to i64
  %arrayidx.i.i.i = getelementptr inbounds i16, ptr %cond.i2.i.i.i, i64 %idxprom.i.i.i
  %7 = load i16, ptr %arrayidx.i.i.i, align 2
  %8 = zext i16 %7 to i32
  br label %_ZNK6icu_7517UCharsTrieElement15getStringLengthERKNS_13UnicodeStringE.exit

_ZNK6icu_7517UCharsTrieElement15getStringLengthERKNS_13UnicodeStringE.exit: ; preds = %entry._ZNK6icu_7517UCharsTrieElement15getStringLengthERKNS_13UnicodeStringE.exit_crit_edge, %if.then.i.i.i
  %.pre-phi = phi i16 [ %.pre38, %entry._ZNK6icu_7517UCharsTrieElement15getStringLengthERKNS_13UnicodeStringE.exit_crit_edge ], [ %5, %if.then.i.i.i ]
  %9 = phi ptr [ %.pre, %entry._ZNK6icu_7517UCharsTrieElement15getStringLengthERKNS_13UnicodeStringE.exit_crit_edge ], [ %6, %if.then.i.i.i ]
  %retval.0.i.i.i = phi i32 [ 65535, %entry._ZNK6icu_7517UCharsTrieElement15getStringLengthERKNS_13UnicodeStringE.exit_crit_edge ], [ %8, %if.then.i.i.i ]
  %tobool.not.i.i.i.i13 = icmp eq i16 %.pre-phi, 0
  %fBuffer.i.i.i.i14 = getelementptr inbounds i8, ptr %this, i64 26
  %cond.i2.i.i.i16 = select i1 %tobool.not.i.i.i.i13, ptr %9, ptr %fBuffer.i.i.i.i14
  %10 = sext i32 %unitIndex to i64
  %11 = zext nneg i32 %retval.0.i.i.i to i64
  %12 = add i32 %unitIndex, 1
  %smax = tail call i32 @llvm.smax.i32(i32 %retval.0.i.i.i, i32 %12)
  br label %while.cond

while.cond:                                       ; preds = %_ZNK6icu_7517UCharsTrieElement6charAtEiRKNS_13UnicodeStringE.exit35, %_ZNK6icu_7517UCharsTrieElement15getStringLengthERKNS_13UnicodeStringE.exit
  %indvars.iv = phi i64 [ %indvars.iv.next, %_ZNK6icu_7517UCharsTrieElement6charAtEiRKNS_13UnicodeStringE.exit35 ], [ %10, %_ZNK6icu_7517UCharsTrieElement15getStringLengthERKNS_13UnicodeStringE.exit ]
  %indvars.iv.next = add nsw i64 %indvars.iv, 1
  %cmp = icmp slt i64 %indvars.iv.next, %11
  br i1 %cmp, label %land.rhs, label %while.end

land.rhs:                                         ; preds = %while.cond
  %13 = trunc i64 %indvars.iv to i32
  %14 = add i32 %13, 2
  %add2.i = add i32 %14, %1
  %cmp.i.i.i10 = icmp ugt i32 %cond.i.i.i.i, %add2.i
  br i1 %cmp.i.i.i10, label %if.then.i.i.i12, label %_ZNK6icu_7517UCharsTrieElement6charAtEiRKNS_13UnicodeStringE.exit

if.then.i.i.i12:                                  ; preds = %land.rhs
  %idxprom.i.i.i17 = sext i32 %add2.i to i64
  %arrayidx.i.i.i18 = getelementptr inbounds i16, ptr %cond.i2.i.i.i16, i64 %idxprom.i.i.i17
  %15 = load i16, ptr %arrayidx.i.i.i18, align 2
  br label %_ZNK6icu_7517UCharsTrieElement6charAtEiRKNS_13UnicodeStringE.exit

_ZNK6icu_7517UCharsTrieElement6charAtEiRKNS_13UnicodeStringE.exit: ; preds = %land.rhs, %if.then.i.i.i12
  %retval.0.i.i.i11 = phi i16 [ %15, %if.then.i.i.i12 ], [ -1, %land.rhs ]
  %16 = load i32, ptr %arrayidx4, align 4
  %add2.i20 = add i32 %16, %14
  %cmp.i.i.i26 = icmp ugt i32 %cond.i.i.i.i, %add2.i20
  br i1 %cmp.i.i.i26, label %if.then.i.i.i28, label %_ZNK6icu_7517UCharsTrieElement6charAtEiRKNS_13UnicodeStringE.exit35

if.then.i.i.i28:                                  ; preds = %_ZNK6icu_7517UCharsTrieElement6charAtEiRKNS_13UnicodeStringE.exit
  %idxprom.i.i.i33 = sext i32 %add2.i20 to i64
  %arrayidx.i.i.i34 = getelementptr inbounds i16, ptr %cond.i2.i.i.i16, i64 %idxprom.i.i.i33
  %17 = load i16, ptr %arrayidx.i.i.i34, align 2
  br label %_ZNK6icu_7517UCharsTrieElement6charAtEiRKNS_13UnicodeStringE.exit35

_ZNK6icu_7517UCharsTrieElement6charAtEiRKNS_13UnicodeStringE.exit35: ; preds = %_ZNK6icu_7517UCharsTrieElement6charAtEiRKNS_13UnicodeStringE.exit, %if.then.i.i.i28
  %retval.0.i.i.i27 = phi i16 [ %17, %if.then.i.i.i28 ], [ -1, %_ZNK6icu_7517UCharsTrieElement6charAtEiRKNS_13UnicodeStringE.exit ]
  %cmp10 = icmp eq i16 %retval.0.i.i.i11, %retval.0.i.i.i27
  br i1 %cmp10, label %while.cond, label %while.end.split.loop.exit39, !llvm.loop !17

while.end.split.loop.exit39:                      ; preds = %_ZNK6icu_7517UCharsTrieElement6charAtEiRKNS_13UnicodeStringE.exit35
  %18 = trunc i64 %indvars.iv.next to i32
  br label %while.end

while.end:                                        ; preds = %while.cond, %while.end.split.loop.exit39
  %inc.lcssa = phi i32 [ %18, %while.end.split.loop.exit39 ], [ %smax, %while.cond ]
  ret i32 %inc.lcssa
}